target datalayout = "e-m:e-p270:32:32-p271:32:32-p272:64:64-i64:64-i128:128-f80:128-n8:16:32:64-S128"
target triple = "x86_64-pc-linux-gnu"

%struct.saucy = type { i32, ptr, ptr, ptr, ptr, %struct.coloring, %struct.coloring, ptr, ptr, ptr, ptr, ptr, i32, i32, ptr, i32, ptr, ptr, ptr, ptr, ptr, ptr, ptr, i32, i32, ptr, i32, ptr, i32, i32, ptr, ptr, ptr, ptr, ptr, ptr, ptr, ptr, ptr, ptr, i32, ptr, ptr, ptr, i32, ptr, i32, ptr, ptr, ptr, ptr, i32, ptr, ptr, i32, ptr, ptr, ptr, ptr, ptr, ptr, ptr, ptr, ptr, ptr, ptr, ptr, ptr, ptr, ptr, ptr, ptr, ptr, ptr, ptr, ptr, ptr, double, i32, i32, i32, ptr, ptr, ptr, ptr }
%struct.coloring = type { ptr, ptr, ptr, ptr }
%struct.Abc_Ntk_t_ = type { i32, i32, ptr, ptr, ptr, ptr, ptr, ptr, ptr, ptr, ptr, ptr, ptr, [11 x i32], i32, i32, i32, i32, ptr, i32, ptr, ptr, i32, i32, i32, double, i32, %struct.Vec_Int_t_, ptr, ptr, ptr, ptr, ptr, float, i32, ptr, ptr, ptr, ptr, ptr, ptr, ptr, ptr, ptr, ptr, ptr, ptr, ptr, ptr, ptr, ptr, ptr, ptr, ptr, ptr, ptr }
%struct.Vec_Int_t_ = type { i32, i32, ptr }
%struct.Vec_Ptr_t_ = type { i32, i32, ptr }

; Function Attrs: nounwind uwtable
define internal i32 @Vec_PtrSize(ptr noundef %0) #0 {
  %2 = alloca ptr, align 8
  store ptr %0, ptr %2, align 8
  %3 = load ptr, ptr %2, align 8
  %4 = getelementptr inbounds %struct.Vec_Ptr_t_, ptr %3, i32 0, i32 1
  %5 = load i32, ptr %4, align 4
  ret i32 %5
}

; Function Attrs: nounwind uwtable
define internal ptr @Vec_PtrEntry(ptr noundef %0, i32 noundef %1) #0 {
  %3 = alloca ptr, align 8
  %4 = alloca i32, align 4
  store ptr %0, ptr %3, align 8
  store i32 %1, ptr %4, align 4
  %5 = load ptr, ptr %3, align 8
  %6 = getelementptr inbounds %struct.Vec_Ptr_t_, ptr %5, i32 0, i32 2
  %7 = load ptr, ptr %6, align 8
  %8 = load i32, ptr %4, align 4
  %9 = sext i32 %8 to i64
  %10 = getelementptr inbounds ptr, ptr %7, i64 %9
  %11 = load ptr, ptr %10, align 8
  ret ptr %11
}

; Function Attrs: nounwind uwtable
define internal i32 @Abc_NtkPoNum(ptr noundef %0) #0 {
  %2 = alloca ptr, align 8
  store ptr %0, ptr %2, align 8
  %3 = load ptr, ptr %2, align 8
  %4 = getelementptr inbounds %struct.Abc_Ntk_t_, ptr %3, i32 0, i32 7
  %5 = load ptr, ptr %4, align 8
  %6 = call i32 @Vec_PtrSize(ptr noundef %5)
  ret i32 %6
}

; Function Attrs: nounwind uwtable
define internal ptr @getVertexName(ptr noundef %0, i32 noundef %1) #0 {
  %3 = alloca ptr, align 8
  %4 = alloca i32, align 4
  %5 = alloca ptr, align 8
  %6 = alloca i32, align 4
  store ptr %0, ptr %3, align 8
  store i32 %1, ptr %4, align 4
  %7 = load ptr, ptr %3, align 8
  %8 = call i32 @Abc_NtkPoNum(ptr noundef %7)
  store i32 %8, ptr %6, align 4
  %9 = load i32, ptr %4, align 4
  %10 = load i32, ptr %6, align 4
  %11 = icmp slt i32 %9, %10
  br i1 %11, label %12, label %18

12:                                               ; preds = %2
  %13 = load ptr, ptr %3, align 8
  %14 = getelementptr inbounds %struct.Abc_Ntk_t_, ptr %13, i32 0, i32 7
  %15 = load ptr, ptr %14, align 8
  %16 = load i32, ptr %4, align 4
  %17 = call ptr @Vec_PtrEntry(ptr noundef %15, i32 noundef %16)
  store ptr %17, ptr %5, align 8
  br label %26

18:                                               ; preds = %2
  %19 = load ptr, ptr %3, align 8
  %20 = getelementptr inbounds %struct.Abc_Ntk_t_, ptr %19, i32 0, i32 6
  %21 = load ptr, ptr %20, align 8
  %22 = load i32, ptr %4, align 4
  %23 = load i32, ptr %6, align 4
  %24 = sub nsw i32 %22, %23
  %25 = call ptr @Vec_PtrEntry(ptr noundef %21, i32 noundef %24)
  store ptr %25, ptr %5, align 8
  br label %26

26:                                               ; preds = %18, %12
  %27 = load ptr, ptr %5, align 8
  %28 = call ptr @Abc_ObjName(ptr noundef %27)
  ret ptr %28
}

; Function Attrs: nounwind uwtable
define internal i32 @check_OPP_for_Boolean_matching(ptr noundef %0, ptr noundef %1) #0 {
  %3 = alloca i32, align 4
  %4 = alloca ptr, align 8
  %5 = alloca ptr, align 8
  %6 = alloca i32, align 4
  %7 = alloca i32, align 4
  %8 = alloca i32, align 4
  %9 = alloca i32, align 4
  %10 = alloca i32, align 4
  %11 = alloca i32, align 4
  %12 = alloca ptr, align 8
  store ptr %0, ptr %4, align 8
  store ptr %1, ptr %5, align 8
  %13 = load ptr, ptr %5, align 8
  %14 = load ptr, ptr %4, align 8
  %15 = getelementptr inbounds %struct.saucy, ptr %14, i32 0, i32 5
  %16 = icmp eq ptr %13, %15
  br i1 %16, label %17, label %18

17:                                               ; preds = %2
  store i32 1, ptr %3, align 4
  br label %115

18:                                               ; preds = %2
  store i32 0, ptr %7, align 4
  br label %19

19:                                               ; preds = %102, %18
  %20 = load i32, ptr %7, align 4
  %21 = load ptr, ptr %4, align 8
  %22 = getelementptr inbounds %struct.saucy, ptr %21, i32 0, i32 0
  %23 = load i32, ptr %22, align 8
  %24 = icmp slt i32 %20, %23
  br i1 %24, label %25, label %114

25:                                               ; preds = %19
  store i32 0, ptr %11, align 4
  store i32 0, ptr %10, align 4
  store i32 0, ptr %9, align 4
  store i32 0, ptr %8, align 4
  %26 = load i32, ptr %7, align 4
  store i32 %26, ptr %6, align 4
  br label %27

27:                                               ; preds = %89, %25
  %28 = load i32, ptr %6, align 4
  %29 = load i32, ptr %7, align 4
  %30 = load ptr, ptr %4, align 8
  %31 = getelementptr inbounds %struct.saucy, ptr %30, i32 0, i32 6
  %32 = getelementptr inbounds %struct.coloring, ptr %31, i32 0, i32 3
  %33 = load ptr, ptr %32, align 8
  %34 = load i32, ptr %7, align 4
  %35 = sext i32 %34 to i64
  %36 = getelementptr inbounds i32, ptr %33, i64 %35
  %37 = load i32, ptr %36, align 4
  %38 = add nsw i32 %29, %37
  %39 = icmp sle i32 %28, %38
  br i1 %39, label %40, label %92

40:                                               ; preds = %27
  %41 = load ptr, ptr %4, align 8
  %42 = getelementptr inbounds %struct.saucy, ptr %41, i32 0, i32 61
  %43 = load ptr, ptr %42, align 8
  %44 = load ptr, ptr %4, align 8
  %45 = getelementptr inbounds %struct.saucy, ptr %44, i32 0, i32 5
  %46 = getelementptr inbounds %struct.coloring, ptr %45, i32 0, i32 0
  %47 = load ptr, ptr %46, align 8
  %48 = load i32, ptr %6, align 4
  %49 = sext i32 %48 to i64
  %50 = getelementptr inbounds i32, ptr %47, i64 %49
  %51 = load i32, ptr %50, align 4
  %52 = call ptr @getVertexName(ptr noundef %43, i32 noundef %51)
  store ptr %52, ptr %12, align 8
  %53 = load ptr, ptr %12, align 8
  %54 = getelementptr inbounds i8, ptr %53, i64 1
  %55 = load i8, ptr %54, align 1
  %56 = sext i8 %55 to i32
  %57 = icmp eq i32 %56, 49
  br i1 %57, label %58, label %61

58:                                               ; preds = %40
  %59 = load i32, ptr %8, align 4
  %60 = add nsw i32 %59, 1
  store i32 %60, ptr %8, align 4
  br label %64

61:                                               ; preds = %40
  %62 = load i32, ptr %9, align 4
  %63 = add nsw i32 %62, 1
  store i32 %63, ptr %9, align 4
  br label %64

64:                                               ; preds = %61, %58
  %65 = load ptr, ptr %4, align 8
  %66 = getelementptr inbounds %struct.saucy, ptr %65, i32 0, i32 61
  %67 = load ptr, ptr %66, align 8
  %68 = load ptr, ptr %4, align 8
  %69 = getelementptr inbounds %struct.saucy, ptr %68, i32 0, i32 6
  %70 = getelementptr inbounds %struct.coloring, ptr %69, i32 0, i32 0
  %71 = load ptr, ptr %70, align 8
  %72 = load i32, ptr %6, align 4
  %73 = sext i32 %72 to i64
  %74 = getelementptr inbounds i32, ptr %71, i64 %73
  %75 = load i32, ptr %74, align 4
  %76 = call ptr @getVertexName(ptr noundef %67, i32 noundef %75)
  store ptr %76, ptr %12, align 8
  %77 = load ptr, ptr %12, align 8
  %78 = getelementptr inbounds i8, ptr %77, i64 1
  %79 = load i8, ptr %78, align 1
  %80 = sext i8 %79 to i32
  %81 = icmp eq i32 %80, 49
  br i1 %81, label %82, label %85

82:                                               ; preds = %64
  %83 = load i32, ptr %10, align 4
  %84 = add nsw i32 %83, 1
  store i32 %84, ptr %10, align 4
  br label %88

85:                                               ; preds = %64
  %86 = load i32, ptr %11, align 4
  %87 = add nsw i32 %86, 1
  store i32 %87, ptr %11, align 4
  br label %88

88:                                               ; preds = %85, %82
  br label %89

89:                                               ; preds = %88
  %90 = load i32, ptr %6, align 4
  %91 = add nsw i32 %90, 1
  store i32 %91, ptr %6, align 4
  br label %27, !llvm.loop !131

92:                                               ; preds = %27
  %93 = load i32, ptr %8, align 4
  %94 = load i32, ptr %11, align 4
  %95 = icmp ne i32 %93, %94
  br i1 %95, label %100, label %96

96:                                               ; preds = %92
  %97 = load i32, ptr %9, align 4
  %98 = load i32, ptr %10, align 4
  %99 = icmp ne i32 %97, %98
  br i1 %99, label %100, label %101

100:                                              ; preds = %96, %92
  store i32 0, ptr %3, align 4
  br label %115

101:                                              ; preds = %96
  br label %102

102:                                              ; preds = %101
  %103 = load ptr, ptr %4, align 8
  %104 = getelementptr inbounds %struct.saucy, ptr %103, i32 0, i32 6
  %105 = getelementptr inbounds %struct.coloring, ptr %104, i32 0, i32 3
  %106 = load ptr, ptr %105, align 8
  %107 = load i32, ptr %7, align 4
  %108 = sext i32 %107 to i64
  %109 = getelementptr inbounds i32, ptr %106, i64 %108
  %110 = load i32, ptr %109, align 4
  %111 = add nsw i32 %110, 1
  %112 = load i32, ptr %7, align 4
  %113 = add nsw i32 %112, %111
  store i32 %113, ptr %7, align 4
  br label %19, !llvm.loop !132

114:                                              ; preds = %19
  store i32 1, ptr %3, align 4
  br label %115

115:                                              ; preds = %114, %100, %17
  %116 = load i32, ptr %3, align 4
  ret i32 %116
}