; Function Attrs: nounwind uwtable
define internal fastcc range(i32 0, 2) i32 @check_OPP_for_Boolean_matching(ptr noundef readonly %0, ptr noundef readnone %1) unnamed_addr #0 {
  %3 = getelementptr inbounds nuw i8, ptr %0, i64 40
  %4 = icmp eq ptr %1, %3
  br i1 %4, label %.loopexit, label %.preheader49

.preheader49:                                     ; preds = %2
  %5 = load i32, ptr %0, align 8
  %6 = icmp sgt i32 %5, 0
  br i1 %6, label %.preheader.lr.ph, label %.loopexit

.preheader.lr.ph:                                 ; preds = %.preheader49
  %7 = getelementptr inbounds nuw i8, ptr %0, i64 72
  %8 = getelementptr inbounds nuw i8, ptr %0, i64 96
  %9 = getelementptr inbounds nuw i8, ptr %0, i64 512
  %.pre = load ptr, ptr %8, align 8
  br label %.preheader

.preheader:                                       ; preds = %.preheader.lr.ph, %60
  %10 = phi ptr [ %.pre, %.preheader.lr.ph ], [ %59, %60 ]
  %.03560 = phi i32 [ 0, %.preheader.lr.ph ], [ %62, %60 ]
  %11 = sext i32 %.03560 to i64
  %12 = getelementptr inbounds i32, ptr %10, i64 %11
  %13 = load i32, ptr %12, align 4
  %.not50 = icmp slt i32 %13, 0
  br i1 %.not50, label %._crit_edge, label %.lr.ph

.lr.ph:                                           ; preds = %.preheader, %getVertexName.exit47
  %indvars.iv = phi i64 [ %indvars.iv.next, %getVertexName.exit47 ], [ %11, %.preheader ]
  %.055 = phi i32 [ %.1, %getVertexName.exit47 ], [ 0, %.preheader ]
  %.02954 = phi i32 [ %.130, %getVertexName.exit47 ], [ 0, %.preheader ]
  %.03153 = phi i32 [ %.132, %getVertexName.exit47 ], [ 0, %.preheader ]
  %.03352 = phi i32 [ %.134, %getVertexName.exit47 ], [ 0, %.preheader ]
  %14 = load ptr, ptr %9, align 8
  %15 = load ptr, ptr %3, align 8
  %16 = getelementptr inbounds i32, ptr %15, i64 %indvars.iv
  %17 = load i32, ptr %16, align 4
  %18 = getelementptr i8, ptr %14, i64 48
  %.val.i = load ptr, ptr %18, align 8
  %19 = getelementptr i8, ptr %.val.i, i64 4
  %.val.val.i = load i32, ptr %19, align 4
  %20 = icmp slt i32 %17, %.val.val.i
  br i1 %20, label %getVertexName.exit, label %21

21:                                               ; preds = %.lr.ph
  %22 = getelementptr inbounds nuw i8, ptr %14, i64 40
  %23 = load ptr, ptr %22, align 8
  %24 = sub nsw i32 %17, %.val.val.i
  br label %getVertexName.exit

getVertexName.exit:                               ; preds = %.lr.ph, %21
  %.sink13.i = phi ptr [ %23, %21 ], [ %.val.i, %.lr.ph ]
  %.sink12.i = phi i32 [ %24, %21 ], [ %17, %.lr.ph ]
  %25 = getelementptr i8, ptr %.sink13.i, i64 8
  %.val10.i = load ptr, ptr %25, align 8
  %26 = sext i32 %.sink12.i to i64
  %27 = getelementptr inbounds ptr, ptr %.val10.i, i64 %26
  %.0.i = load ptr, ptr %27, align 8
  %28 = tail call ptr @Abc_ObjName(ptr noundef %.0.i) #24
  %29 = getelementptr inbounds nuw i8, ptr %28, i64 1
  %30 = load i8, ptr %29, align 1
  %31 = icmp eq i8 %30, 49
  %32 = zext i1 %31 to i32
  %.134 = add nuw nsw i32 %.03352, %32
  %not. = xor i1 %31, true
  %33 = zext i1 %not. to i32
  %.132 = add nuw nsw i32 %.03153, %33
  %34 = load ptr, ptr %9, align 8
  %35 = load ptr, ptr %7, align 8
  %36 = getelementptr inbounds i32, ptr %35, i64 %indvars.iv
  %37 = load i32, ptr %36, align 4
  %38 = getelementptr i8, ptr %34, i64 48
  %.val.i41 = load ptr, ptr %38, align 8
  %39 = getelementptr i8, ptr %.val.i41, i64 4
  %.val.val.i42 = load i32, ptr %39, align 4
  %40 = icmp slt i32 %37, %.val.val.i42
  br i1 %40, label %getVertexName.exit47, label %41

41:                                               ; preds = %getVertexName.exit
  %42 = getelementptr inbounds nuw i8, ptr %34, i64 40
  %43 = load ptr, ptr %42, align 8
  %44 = sub nsw i32 %37, %.val.val.i42
  br label %getVertexName.exit47

getVertexName.exit47:                             ; preds = %getVertexName.exit, %41
  %.sink13.i43 = phi ptr [ %43, %41 ], [ %.val.i41, %getVertexName.exit ]
  %.sink12.i44 = phi i32 [ %44, %41 ], [ %37, %getVertexName.exit ]
  %45 = getelementptr i8, ptr %.sink13.i43, i64 8
  %.val10.i45 = load ptr, ptr %45, align 8
  %46 = sext i32 %.sink12.i44 to i64
  %47 = getelementptr inbounds ptr, ptr %.val10.i45, i64 %46
  %.0.i46 = load ptr, ptr %47, align 8
  %48 = tail call ptr @Abc_ObjName(ptr noundef %.0.i46) #24
  %49 = getelementptr inbounds nuw i8, ptr %48, i64 1
  %50 = load i8, ptr %49, align 1
  %51 = icmp eq i8 %50, 49
  %52 = zext i1 %51 to i32
  %.130 = add nuw nsw i32 %.02954, %52
  %not.48 = xor i1 %51, true
  %53 = zext i1 %not.48 to i32
  %.1 = add nuw nsw i32 %.055, %53
  %indvars.iv.next = add nsw i64 %indvars.iv, 1
  %54 = load ptr, ptr %8, align 8
  %55 = getelementptr inbounds i32, ptr %54, i64 %11
  %56 = load i32, ptr %55, align 4
  %57 = add nsw i32 %56, %.03560
  %58 = sext i32 %57 to i64
  %.not.not = icmp slt i64 %indvars.iv, %58
  br i1 %.not.not, label %.lr.ph, label %._crit_edge, !llvm.loop !159

._crit_edge:                                      ; preds = %getVertexName.exit47, %.preheader
  %59 = phi ptr [ %10, %.preheader ], [ %54, %getVertexName.exit47 ]
  %.033.lcssa = phi i32 [ 0, %.preheader ], [ %.134, %getVertexName.exit47 ]
  %.031.lcssa = phi i32 [ 0, %.preheader ], [ %.132, %getVertexName.exit47 ]
  %.029.lcssa = phi i32 [ 0, %.preheader ], [ %.130, %getVertexName.exit47 ]
  %.0.lcssa = phi i32 [ 0, %.preheader ], [ %.1, %getVertexName.exit47 ]
  %.lcssa = phi i32 [ %13, %.preheader ], [ %56, %getVertexName.exit47 ]
  %.not39 = icmp eq i32 %.033.lcssa, %.0.lcssa
  %.not40 = icmp eq i32 %.031.lcssa, %.029.lcssa
  %or.cond = select i1 %.not39, i1 %.not40, i1 false
  br i1 %or.cond, label %60, label %.loopexit

60:                                               ; preds = %._crit_edge
  %61 = add i32 %.03560, 1
  %62 = add i32 %61, %.lcssa
  %63 = load i32, ptr %0, align 8
  %64 = icmp slt i32 %62, %63
  br i1 %64, label %.preheader, label %.loopexit, !llvm.loop !160

.loopexit:                                        ; preds = %._crit_edge, %60, %.preheader49, %2
  %.037 = phi i32 [ 1, %2 ], [ 1, %.preheader49 ], [ 0, %._crit_edge ], [ 1, %60 ]
  ret i32 %.037
}